target datalayout = "e-m:e-p270:32:32-p271:32:32-p272:64:64-i64:64-i128:128-f80:128-n8:16:32:64-S128"
target triple = "x86_64-pc-linux-gnu"

; Function Attrs: nounwind uwtable
define i64 @cli_strntoul(ptr noundef %0, i64 noundef %1, ptr noundef %2, i32 noundef %3) #0 {
  %5 = alloca ptr, align 8
  %6 = alloca i64, align 8
  %7 = alloca ptr, align 8
  %8 = alloca i32, align 4
  %9 = alloca ptr, align 8
  %10 = alloca i64, align 8
  %11 = alloca i32, align 4
  %12 = alloca i64, align 8
  %13 = alloca i32, align 4
  %14 = alloca i32, align 4
  %15 = alloca i32, align 4
  store ptr %0, ptr %5, align 8
  store i64 %1, ptr %6, align 8
  store ptr %2, ptr %7, align 8
  store i32 %3, ptr %8, align 4
  %16 = load ptr, ptr %5, align 8
  store ptr %16, ptr %9, align 8
  store i64 0, ptr %10, align 8
  store i32 0, ptr %13, align 4
  store i32 0, ptr %14, align 4
  br label %17

17:                                               ; preds = %38, %4
  %18 = load ptr, ptr %9, align 8
  %19 = load i8, ptr %18, align 1
  %20 = sext i8 %19 to i32
  store i32 %20, ptr %11, align 4
  br label %21

21:                                               ; preds = %17
  %22 = call ptr @__ctype_b_loc() #10
  %23 = load ptr, ptr %22, align 8
  %24 = load i32, ptr %11, align 4
  %25 = sext i32 %24 to i64
  %26 = getelementptr inbounds i16, ptr %23, i64 %25
  %27 = load i16, ptr %26, align 2
  %28 = zext i16 %27 to i32
  %29 = and i32 %28, 8192
  %30 = icmp ne i32 %29, 0
  br i1 %30, label %31, label %38

31:                                               ; preds = %21
  %32 = load ptr, ptr %9, align 8
  %33 = getelementptr inbounds i8, ptr %32, i32 1
  store ptr %33, ptr %9, align 8
  %34 = load ptr, ptr %5, align 8
  %35 = load i64, ptr %6, align 8
  %36 = getelementptr inbounds i8, ptr %34, i64 %35
  %37 = icmp ult ptr %33, %36
  br label %38

38:                                               ; preds = %31, %21
  %39 = phi i1 [ false, %21 ], [ %37, %31 ]
  br i1 %39, label %17, label %40

40:                                               ; preds = %38
  %41 = load ptr, ptr %9, align 8
  %42 = load ptr, ptr %5, align 8
  %43 = load i64, ptr %6, align 8
  %44 = getelementptr inbounds i8, ptr %42, i64 %43
  %45 = icmp uge ptr %41, %44
  br i1 %45, label %46, label %47

46:                                               ; preds = %40
  br label %231

47:                                               ; preds = %40
  %48 = load i32, ptr %11, align 4
  %49 = icmp eq i32 %48, 45
  br i1 %49, label %50, label %62

50:                                               ; preds = %47
  store i32 1, ptr %13, align 4
  %51 = load ptr, ptr %9, align 8
  %52 = getelementptr inbounds i8, ptr %51, i32 1
  store ptr %52, ptr %9, align 8
  %53 = load i8, ptr %51, align 1
  %54 = sext i8 %53 to i32
  store i32 %54, ptr %11, align 4
  %55 = load ptr, ptr %9, align 8
  %56 = load ptr, ptr %5, align 8
  %57 = load i64, ptr %6, align 8
  %58 = getelementptr inbounds i8, ptr %56, i64 %57
  %59 = icmp uge ptr %55, %58
  br i1 %59, label %60, label %61

60:                                               ; preds = %50
  br label %231

61:                                               ; preds = %50
  br label %78

62:                                               ; preds = %47
  %63 = load i32, ptr %11, align 4
  %64 = icmp eq i32 %63, 43
  br i1 %64, label %65, label %77

65:                                               ; preds = %62
  %66 = load ptr, ptr %9, align 8
  %67 = getelementptr inbounds i8, ptr %66, i32 1
  store ptr %67, ptr %9, align 8
  %68 = load i8, ptr %66, align 1
  %69 = sext i8 %68 to i32
  store i32 %69, ptr %11, align 4
  %70 = load ptr, ptr %9, align 8
  %71 = load ptr, ptr %5, align 8
  %72 = load i64, ptr %6, align 8
  %73 = getelementptr inbounds i8, ptr %71, i64 %72
  %74 = icmp uge ptr %70, %73
  br i1 %74, label %75, label %76

75:                                               ; preds = %65
  br label %231

76:                                               ; preds = %65
  br label %77

77:                                               ; preds = %76, %62
  br label %78

78:                                               ; preds = %77, %61
  %79 = load i32, ptr %8, align 4
  %80 = icmp eq i32 %79, 0
  br i1 %80, label %84, label %81

81:                                               ; preds = %78
  %82 = load i32, ptr %8, align 4
  %83 = icmp eq i32 %82, 16
  br i1 %83, label %84, label %122

84:                                               ; preds = %81, %78
  %85 = load i32, ptr %11, align 4
  %86 = icmp eq i32 %85, 48
  br i1 %86, label %87, label %121

87:                                               ; preds = %84
  %88 = load ptr, ptr %9, align 8
  %89 = getelementptr inbounds i8, ptr %88, i64 1
  %90 = load ptr, ptr %5, align 8
  %91 = load i64, ptr %6, align 8
  %92 = getelementptr inbounds i8, ptr %90, i64 %91
  %93 = icmp ult ptr %89, %92
  br i1 %93, label %94, label %121

94:                                               ; preds = %87
  %95 = load ptr, ptr %9, align 8
  %96 = getelementptr inbounds i8, ptr %95, i64 1
  %97 = load i8, ptr %96, align 1
  %98 = sext i8 %97 to i32
  %99 = icmp eq i32 %98, 120
  br i1 %99, label %106, label %100

100:                                              ; preds = %94
  %101 = load ptr, ptr %9, align 8
  %102 = getelementptr inbounds i8, ptr %101, i64 1
  %103 = load i8, ptr %102, align 1
  %104 = sext i8 %103 to i32
  %105 = icmp eq i32 %104, 88
  br i1 %105, label %106, label %121

106:                                              ; preds = %100, %94
  %107 = load ptr, ptr %9, align 8
  %108 = getelementptr inbounds i8, ptr %107, i64 2
  %109 = load ptr, ptr %5, align 8
  %110 = load i64, ptr %6, align 8
  %111 = getelementptr inbounds i8, ptr %109, i64 %110
  %112 = icmp uge ptr %108, %111
  br i1 %112, label %113, label %114

113:                                              ; preds = %106
  br label %231

114:                                              ; preds = %106
  %115 = load ptr, ptr %9, align 8
  %116 = getelementptr inbounds i8, ptr %115, i64 1
  %117 = load i8, ptr %116, align 1
  %118 = sext i8 %117 to i32
  store i32 %118, ptr %11, align 4
  %119 = load ptr, ptr %9, align 8
  %120 = getelementptr inbounds i8, ptr %119, i64 2
  store ptr %120, ptr %9, align 8
  store i32 16, ptr %8, align 4
  br label %121

121:                                              ; preds = %114, %100, %87, %84
  br label %122

122:                                              ; preds = %121, %81
  %123 = load i32, ptr %8, align 4
  %124 = icmp eq i32 %123, 0
  br i1 %124, label %125, label %129

125:                                              ; preds = %122
  %126 = load i32, ptr %11, align 4
  %127 = icmp eq i32 %126, 48
  %128 = select i1 %127, i32 8, i32 10
  store i32 %128, ptr %8, align 4
  br label %129

129:                                              ; preds = %125, %122
  %130 = load i32, ptr %8, align 4
  %131 = sext i32 %130 to i64
  %132 = udiv i64 -1, %131
  store i64 %132, ptr %12, align 8
  %133 = load i32, ptr %8, align 4
  %134 = sext i32 %133 to i64
  %135 = urem i64 -1, %134
  %136 = trunc i64 %135 to i32
  store i32 %136, ptr %15, align 4
  store i64 0, ptr %10, align 8
  store i32 0, ptr %14, align 4
  br label %137

137:                                              ; preds = %215, %129
  %138 = load ptr, ptr %9, align 8
  %139 = load ptr, ptr %5, align 8
  %140 = load i64, ptr %6, align 8
  %141 = getelementptr inbounds i8, ptr %139, i64 %140
  %142 = icmp ult ptr %138, %141
  br i1 %142, label %143, label %218

143:                                              ; preds = %137
  %144 = load ptr, ptr %9, align 8
  %145 = load i8, ptr %144, align 1
  %146 = sext i8 %145 to i32
  store i32 %146, ptr %11, align 4
  %147 = call ptr @__ctype_b_loc() #10
  %148 = load ptr, ptr %147, align 8
  %149 = load i32, ptr %11, align 4
  %150 = sext i32 %149 to i64
  %151 = getelementptr inbounds i16, ptr %148, i64 %150
  %152 = load i16, ptr %151, align 2
  %153 = zext i16 %152 to i32
  %154 = and i32 %153, 2048
  %155 = icmp ne i32 %154, 0
  br i1 %155, label %156, label %159

156:                                              ; preds = %143
  %157 = load i32, ptr %11, align 4
  %158 = sub nsw i32 %157, 48
  store i32 %158, ptr %11, align 4
  br label %184

159:                                              ; preds = %143
  %160 = call ptr @__ctype_b_loc() #10
  %161 = load ptr, ptr %160, align 8
  %162 = load i32, ptr %11, align 4
  %163 = sext i32 %162 to i64
  %164 = getelementptr inbounds i16, ptr %161, i64 %163
  %165 = load i16, ptr %164, align 2
  %166 = zext i16 %165 to i32
  %167 = and i32 %166, 1024
  %168 = icmp ne i32 %167, 0
  br i1 %168, label %169, label %182

169:                                              ; preds = %159
  %170 = call ptr @__ctype_b_loc() #10
  %171 = load ptr, ptr %170, align 8
  %172 = load i32, ptr %11, align 4
  %173 = sext i32 %172 to i64
  %174 = getelementptr inbounds i16, ptr %171, i64 %173
  %175 = load i16, ptr %174, align 2
  %176 = zext i16 %175 to i32
  %177 = and i32 %176, 256
  %178 = icmp ne i32 %177, 0
  %179 = select i1 %178, i32 55, i32 87
  %180 = load i32, ptr %11, align 4
  %181 = sub nsw i32 %180, %179
  store i32 %181, ptr %11, align 4
  br label %183

182:                                              ; preds = %159
  br label %218

183:                                              ; preds = %169
  br label %184

184:                                              ; preds = %183, %156
  %185 = load i32, ptr %11, align 4
  %186 = load i32, ptr %8, align 4
  %187 = icmp sge i32 %185, %186
  br i1 %187, label %188, label %189

188:                                              ; preds = %184
  br label %218

189:                                              ; preds = %184
  %190 = load i32, ptr %14, align 4
  %191 = icmp slt i32 %190, 0
  br i1 %191, label %204, label %192

192:                                              ; preds = %189
  %193 = load i64, ptr %10, align 8
  %194 = load i64, ptr %12, align 8
  %195 = icmp ugt i64 %193, %194
  br i1 %195, label %204, label %196

196:                                              ; preds = %192
  %197 = load i64, ptr %10, align 8
  %198 = load i64, ptr %12, align 8
  %199 = icmp eq i64 %197, %198
  br i1 %199, label %200, label %205

200:                                              ; preds = %196
  %201 = load i32, ptr %11, align 4
  %202 = load i32, ptr %15, align 4
  %203 = icmp sgt i32 %201, %202
  br i1 %203, label %204, label %205

204:                                              ; preds = %200, %192, %189
  store i32 -1, ptr %14, align 4
  br label %214

205:                                              ; preds = %200, %196
  store i32 1, ptr %14, align 4
  %206 = load i32, ptr %8, align 4
  %207 = sext i32 %206 to i64
  %208 = load i64, ptr %10, align 8
  %209 = mul i64 %208, %207
  store i64 %209, ptr %10, align 8
  %210 = load i32, ptr %11, align 4
  %211 = sext i32 %210 to i64
  %212 = load i64, ptr %10, align 8
  %213 = add i64 %212, %211
  store i64 %213, ptr %10, align 8
  br label %214

214:                                              ; preds = %205, %204
  br label %215

215:                                              ; preds = %214
  %216 = load ptr, ptr %9, align 8
  %217 = getelementptr inbounds i8, ptr %216, i32 1
  store ptr %217, ptr %9, align 8
  br label %137

218:                                              ; preds = %188, %182, %137
  %219 = load i32, ptr %14, align 4
  %220 = icmp slt i32 %219, 0
  br i1 %220, label %221, label %223

221:                                              ; preds = %218
  store i64 -1, ptr %10, align 8
  %222 = call ptr @__errno_location() #10
  store i32 34, ptr %222, align 4
  br label %230

223:                                              ; preds = %218
  %224 = load i32, ptr %13, align 4
  %225 = icmp ne i32 %224, 0
  br i1 %225, label %226, label %229

226:                                              ; preds = %223
  %227 = load i64, ptr %10, align 8
  %228 = sub i64 0, %227
  store i64 %228, ptr %10, align 8
  br label %229

229:                                              ; preds = %226, %223
  br label %230

230:                                              ; preds = %229, %221
  br label %231

231:                                              ; preds = %230, %113, %75, %60, %46
  %232 = load ptr, ptr %7, align 8
  %233 = icmp ne ptr %232, null
  br i1 %233, label %234, label %244

234:                                              ; preds = %231
  %235 = load i32, ptr %14, align 4
  %236 = icmp ne i32 %235, 0
  br i1 %236, label %237, label %239

237:                                              ; preds = %234
  %238 = load ptr, ptr %9, align 8
  br label %241

239:                                              ; preds = %234
  %240 = load ptr, ptr %5, align 8
  br label %241

241:                                              ; preds = %239, %237
  %242 = phi ptr [ %238, %237 ], [ %240, %239 ]
  %243 = load ptr, ptr %7, align 8
  store ptr %242, ptr %243, align 8
  br label %244

244:                                              ; preds = %241, %231
  %245 = load i64, ptr %10, align 8
  ret i64 %245
}