; Function Attrs: nofree nosync nounwind memory(readwrite, inaccessiblemem: none) uwtable
define i64 @cli_strntoul(ptr noundef %0, i64 noundef %1, ptr noundef writeonly %2, i32 noundef %3) local_unnamed_addr #17 {
  %5 = tail call ptr @__ctype_b_loc() #29
  %6 = load ptr, ptr %5, align 8
  %7 = getelementptr inbounds i8, ptr %0, i64 %1
  br label %8

8:                                                ; preds = %14, %4
  %.073 = phi ptr [ %0, %4 ], [ %15, %14 ]
  %9 = load i8, ptr %.073, align 1
  %10 = sext i8 %9 to i64
  %11 = getelementptr inbounds i16, ptr %6, i64 %10
  %12 = load i16, ptr %11, align 2
  %13 = and i16 %12, 8192
  %.not = icmp eq i16 %13, 0
  br i1 %.not, label %.critedge, label %14

14:                                               ; preds = %8
  %15 = getelementptr inbounds i8, ptr %.073, i64 1
  %16 = icmp ult ptr %15, %7
  br i1 %16, label %8, label %.critedge

.critedge:                                        ; preds = %8, %14
  %.174 = phi ptr [ %15, %14 ], [ %.073, %8 ]
  %.not95 = icmp ult ptr %.174, %7
  br i1 %.not95, label %17, label %.thread147

17:                                               ; preds = %.critedge
  %.not104 = icmp eq i8 %9, 45
  br i1 %.not104, label %18, label %21

18:                                               ; preds = %17
  %19 = getelementptr inbounds i8, ptr %.174, i64 1
  %20 = load i8, ptr %.174, align 1
  %.not97 = icmp ult ptr %19, %7
  br i1 %.not97, label %26, label %.thread147

21:                                               ; preds = %17
  %22 = icmp eq i8 %9, 43
  br i1 %22, label %23, label %26

23:                                               ; preds = %21
  %24 = getelementptr inbounds i8, ptr %.174, i64 1
  %25 = load i8, ptr %.174, align 1
  %.not96 = icmp ult ptr %24, %7
  br i1 %.not96, label %26, label %.thread147

26:                                               ; preds = %21, %23, %18
  %.076.in = phi i8 [ %20, %18 ], [ %25, %23 ], [ %9, %21 ]
  %.275 = phi ptr [ %19, %18 ], [ %24, %23 ], [ %.174, %21 ]
  %.076.in.fr = freeze i8 %.076.in
  %27 = and i32 %3, -17
  %or.cond = icmp eq i32 %27, 0
  %28 = icmp eq i8 %.076.in.fr, 48
  %or.cond3 = and i1 %or.cond, %28
  br i1 %or.cond3, label %29, label %37

29:                                               ; preds = %26
  %30 = getelementptr inbounds i8, ptr %.275, i64 1
  %31 = icmp ult ptr %30, %7
  br i1 %31, label %32, label %.thread

32:                                               ; preds = %29
  %33 = load i8, ptr %30, align 1
  switch i8 %33, label %.thread [
    i8 120, label %34
    i8 88, label %34
  ]

34:                                               ; preds = %32, %32
  %35 = getelementptr inbounds i8, ptr %.275, i64 2
  %.not98 = icmp ult ptr %35, %7
  br i1 %.not98, label %.thread122, label %.thread147

.thread:                                          ; preds = %29, %32
  %36 = icmp eq i32 %3, 0
  br i1 %36, label %39, label %.thread122

37:                                               ; preds = %26
  %38 = icmp eq i32 %3, 0
  %. = select i1 %28, i32 8, i32 10
  br i1 %38, label %39, label %.thread122

39:                                               ; preds = %37, %.thread
  %40 = phi i32 [ 8, %.thread ], [ %., %37 ]
  br label %.thread122

.thread122:                                       ; preds = %37, %34, %.thread, %39
  %.3113125 = phi ptr [ %.275, %39 ], [ %.275, %.thread ], [ %35, %34 ], [ %.275, %37 ]
  %41 = phi i32 [ %40, %39 ], [ %3, %.thread ], [ 16, %34 ], [ %3, %37 ]
  %42 = sext i32 %41 to i64
  %43 = udiv i64 -1, %42
  %44 = urem i64 -1, %42
  %45 = trunc i64 %44 to i32
  %46 = icmp ult ptr %.3113125, %7
  br i1 %46, label %.lr.ph, label %.thread147

.lr.ph:                                           ; preds = %.thread122, %72
  %.070130 = phi i32 [ %.171, %72 ], [ 0, %.thread122 ]
  %.4129 = phi ptr [ %73, %72 ], [ %.3113125, %.thread122 ]
  %.079128 = phi i64 [ %.180, %72 ], [ 0, %.thread122 ]
  %47 = load i8, ptr %.4129, align 1
  %48 = sext i8 %47 to i32
  %49 = sext i8 %47 to i64
  %50 = getelementptr inbounds i16, ptr %6, i64 %49
  %51 = load i16, ptr %50, align 2
  %52 = zext i16 %51 to i32
  %53 = and i32 %52, 2048
  %.not99 = icmp eq i32 %53, 0
  br i1 %.not99, label %56, label %54

54:                                               ; preds = %.lr.ph
  %55 = add nsw i32 %48, -48
  br label %61

56:                                               ; preds = %.lr.ph
  %57 = and i32 %52, 1024
  %.not100 = icmp eq i32 %57, 0
  br i1 %.not100, label %._crit_edge, label %58

58:                                               ; preds = %56
  %59 = and i32 %52, 256
  %.not101 = icmp eq i32 %59, 0
  %.neg = select i1 %.not101, i32 -87, i32 -55
  %60 = add nsw i32 %.neg, %48
  br label %61

61:                                               ; preds = %58, %54
  %.278 = phi i32 [ %55, %54 ], [ %60, %58 ]
  %.not102 = icmp slt i32 %.278, %41
  br i1 %.not102, label %62, label %._crit_edge

62:                                               ; preds = %61
  %63 = icmp slt i32 %.070130, 0
  %64 = icmp ugt i64 %.079128, %43
  %or.cond107 = select i1 %63, i1 true, i1 %64
  br i1 %or.cond107, label %72, label %65

65:                                               ; preds = %62
  %66 = icmp eq i64 %.079128, %43
  %67 = icmp sgt i32 %.278, %45
  %or.cond108 = and i1 %66, %67
  br i1 %or.cond108, label %72, label %68

68:                                               ; preds = %65
  %69 = mul i64 %.079128, %42
  %70 = sext i32 %.278 to i64
  %71 = add i64 %69, %70
  br label %72

72:                                               ; preds = %62, %65, %68
  %.180 = phi i64 [ %71, %68 ], [ %43, %65 ], [ %.079128, %62 ]
  %.171 = phi i32 [ 1, %68 ], [ -1, %65 ], [ -1, %62 ]
  %73 = getelementptr inbounds i8, ptr %.4129, i64 1
  %74 = icmp ult ptr %73, %7
  br i1 %74, label %.lr.ph, label %._crit_edge

._crit_edge:                                      ; preds = %72, %56, %61
  %.079.lcssa = phi i64 [ %.180, %72 ], [ %.079128, %56 ], [ %.079128, %61 ]
  %.4.lcssa = phi ptr [ %73, %72 ], [ %.4129, %56 ], [ %.4129, %61 ]
  %.070.lcssa = phi i32 [ %.171, %72 ], [ %.070130, %56 ], [ %.070130, %61 ]
  %75 = icmp slt i32 %.070.lcssa, 0
  br i1 %75, label %76, label %78

76:                                               ; preds = %._crit_edge
  %77 = tail call ptr @__errno_location() #29
  store i32 34, ptr %77, align 4
  br label %.thread147

78:                                               ; preds = %._crit_edge
  %79 = sub i64 0, %.079.lcssa
  %spec.select = select i1 %.not104, i64 %79, i64 %.079.lcssa
  %80 = icmp eq i32 %.070.lcssa, 0
  %spec.select154 = select i1 %80, ptr %0, ptr %.4.lcssa
  br label %.thread147

.thread147:                                       ; preds = %78, %.thread122, %76, %34, %23, %18, %.critedge
  %.281 = phi i64 [ 0, %.critedge ], [ 0, %18 ], [ 0, %34 ], [ -1, %76 ], [ 0, %23 ], [ 0, %.thread122 ], [ %spec.select, %78 ]
  %.2 = phi ptr [ %0, %.critedge ], [ %0, %18 ], [ %0, %34 ], [ %.4.lcssa, %76 ], [ %0, %23 ], [ %0, %.thread122 ], [ %spec.select154, %78 ]
  %.not105 = icmp eq ptr %2, null
  br i1 %.not105, label %82, label %81

81:                                               ; preds = %.thread147
  store ptr %.2, ptr %2, align 8
  br label %82

82:                                               ; preds = %81, %.thread147
  ret i64 %.281
}